Certificate:
    Data:
        Version: 3 (0x2)
        Serial Number: 15135572869281947421 (0xd20c5b5539971f1d)
    Signature Algorithm: sha256WithRSAEncryption
        Issuer: C=CN, ST=ZheJiang, O=AJ, OU=org, CN=aj.org
        Validity
            Not Before: Nov 18 15:43:38 2017 GMT
            Not After : Nov 17 15:43:38 2020 GMT
        Subject: C=CN, ST=ZheJiang, O=AJ, OU=org, CN=aj.org
        Subject Public Key Info:
            Public Key Algorithm: rsaEncryption
                Public-Key: (2048 bit)
                Modulus:
                    00:e0:c0:72:35:64:ac:22:bc:23:42:31:5b:7b:03:
                    df:8f:6b:23:a6:38:f9:14:41:ac:97:eb:d1:b4:3c:
                    89:0a:07:42:21:29:bd:d9:07:05:8a:95:53:df:8b:
                    9d:f2:f2:9f:55:15:f9:d1:52:00:82:5c:97:f7:53:
                    48:91:ae:f8:02:c9:fc:8e:47:55:16:2b:94:23:c8:
                    38:83:37:07:52:9d:c3:15:b3:0b:93:2c:bc:80:b6:
                    a2:f6:1d:ef:80:ba:44:db:6c:ec:11:6d:a3:fd:72:
                    21:0c:5d:1b:f7:36:0e:43:d0:db:b2:a0:af:34:f2:
                    bd:af:ba:ac:c4:78:3d:15:7b:6f:e8:54:13:a2:3f:
                    60:1e:8f:92:45:2c:a0:ef:47:6e:7b:32:62:e3:13:
                    07:46:ab:7e:03:55:43:cc:8f:5e:0a:ad:5d:3d:c6:
                    38:e9:5f:e1:f3:de:db:57:4f:bd:29:1a:e8:f2:a3:
                    b2:99:a1:2a:e0:40:71:48:86:1d:be:a0:da:68:da:
                    e2:02:32:33:43:93:97:d5:4d:31:65:4d:90:49:04:
                    2c:91:f3:eb:2b:1a:39:fe:f4:9e:09:fe:f7:13:9c:
                    3f:75:23:81:03:59:60:0e:19:05:99:ef:31:cc:6d:
                    9b:38:8a:f7:c0:4a:8f:ac:0f:d5:77:5f:4c:67:37:
                    3e:b7
                Exponent: 65537 (0x10001)
        X509v3 extensions:
            X509v3 Subject Key Identifier: 
                83:D2:8E:75:1D:A8:17:D1:14:F9:17:E2:BB:13:20:C7:81:84:BB:91
            X509v3 Authority Key Identifier: 
                keyid:83:D2:8E:75:1D:A8:17:D1:14:F9:17:E2:BB:13:20:C7:81:84:BB:91

            X509v3 Basic Constraints: 
                CA:TRUE
    Signature Algorithm: sha256WithRSAEncryption
         67:45:7c:02:78:01:0e:95:9c:da:13:bf:a1:5c:01:0c:cb:57:
         2f:cb:e1:4d:26:42:b0:3e:1c:5f:c6:2d:8b:c2:d7:ac:62:fc:
         c1:c5:d0:7f:1e:6d:cc:8e:11:ed:f6:85:ff:96:53:73:fc:66:
         f2:fa:e1:8b:9f:f2:62:ce:22:e4:b9:24:85:6f:a0:d1:d3:3c:
         03:30:8e:d1:71:1b:15:dd:70:7c:fa:1c:e7:a9:78:55:c1:a1:
         5e:e9:35:f1:10:03:1d:49:51:39:38:b6:38:f9:75:c4:1f:16:
         eb:1f:19:d2:62:bf:7c:35:84:c3:8c:fd:2c:6f:85:f2:1a:26:
         bc:3c:56:b4:52:a3:d4:5b:f3:ee:76:cc:00:13:c6:a5:5f:1b:
         c1:43:c7:61:60:f8:36:d3:bf:fa:8b:7f:e9:8a:f4:07:36:83:
         01:91:74:cb:fd:89:1c:a6:a2:91:8c:1a:61:f5:6c:b7:48:0c:
         3d:1f:24:7a:93:9d:8c:c3:b0:ad:8b:58:20:1c:99:84:77:55:
         fc:b0:33:6e:62:47:60:fc:5a:37:73:08:ab:f6:4b:ea:13:51:
         69:06:13:ef:af:28:b1:86:10:4b:42:3b:cb:c0:38:ae:8d:d1:
         0f:9b:24:e2:dd:02:a1:c6:97:67:31:b1:58:2d:a4:ea:cd:9e:
         c5:1c:46:90
-----BEGIN CERTIFICATE-----
MIIDazCCAlOgAwIBAgIJANIMW1U5lx8dMA0GCSqGSIb3DQEBCwUAMEwxCzAJBgNV
BAYTAkNOMREwDwYDVQQIDAhaaGVKaWFuZzELMAkGA1UECgwCQUoxDDAKBgNVBAsM
A29yZzEPMA0GA1UEAwwGYWoub3JnMB4XDTE3MTExODE1NDMzOFoXDTIwMTExNzE1
NDMzOFowTDELMAkGA1UEBhMCQ04xETAPBgNVBAgMCFpoZUppYW5nMQswCQYDVQQK
DAJBSjEMMAoGA1UECwwDb3JnMQ8wDQYDVQQDDAZhai5vcmcwggEiMA0GCSqGSIb3
DQEBAQUAA4IBDwAwggEKAoIBAQDgwHI1ZKwivCNCMVt7A9+PayOmOPkUQayX69G0
PIkKB0IhKb3ZBwWKlVPfi53y8p9VFfnRUgCCXJf3U0iRrvgCyfyOR1UWK5QjyDiD
NwdSncMVswuTLLyAtqL2He+AukTbbOwRbaP9ciEMXRv3Ng5D0NuyoK808r2vuqzE
eD0Ve2/oVBOiP2Aej5JFLKDvR257MmLjEwdGq34DVUPMj14KrV09xjjpX+Hz3ttX
T70pGujyo7KZoSrgQHFIhh2+oNpo2uICMjNDk5fVTTFlTZBJBCyR8+srGjn+9J4J
/vcTnD91I4EDWWAOGQWZ7zHMbZs4ivfASo+sD9V3X0xnNz63AgMBAAGjUDBOMB0G
A1UdDgQWBBSD0o51HagX0RT5F+K7EyDHgYS7kTAfBgNVHSMEGDAWgBSD0o51HagX
0RT5F+K7EyDHgYS7kTAMBgNVHRMEBTADAQH/MA0GCSqGSIb3DQEBCwUAA4IBAQBn
RXwCeAEOlZzaE7+hXAEMy1cvy+FNJkKwPhxfxi2LwtesYvzBxdB/Hm3MjhHt9oX/
llNz/Gby+uGLn/JiziLkuSSFb6DR0zwDMI7RcRsV3XB8+hznqXhVwaFe6TXxEAMd
SVE5OLY4+XXEHxbrHxnSYr98NYTDjP0sb4XyGia8PFa0UqPUW/PudswAE8alXxvB
Q8dhYPg207/6i3/pivQHNoMBkXTL/YkcpqKRjBph9Wy3SAw9HyR6k52Mw7Cti1gg
HJmEd1X8sDNuYkdg/Fo3cwir9kvqE1FpBhPvryixhhBLQjvLwDiujdEPmyTi3QKh
xpdnMbFYLaTqzZ7FHEaQ
-----END CERTIFICATE-----
